target datalayout = "e-m:e-p270:32:32-p271:32:32-p272:64:64-i64:64-i128:128-f80:128-n8:16:32:64-S128"
target triple = "x86_64-pc-linux-gnu"

; Function Attrs: nounwind uwtable
define internal void @snow_vertical_compose97i(ptr noundef %0, ptr noundef %1, ptr noundef %2, ptr noundef %3, ptr noundef %4, ptr noundef %5, i32 noundef %6) #0 {
  %8 = alloca ptr, align 8
  %9 = alloca ptr, align 8
  %10 = alloca ptr, align 8
  %11 = alloca ptr, align 8
  %12 = alloca ptr, align 8
  %13 = alloca ptr, align 8
  %14 = alloca i32, align 4
  %15 = alloca i32, align 4
  store ptr %0, ptr %8, align 8, !tbaa !11
  store ptr %1, ptr %9, align 8, !tbaa !11
  store ptr %2, ptr %10, align 8, !tbaa !11
  store ptr %3, ptr %11, align 8, !tbaa !11
  store ptr %4, ptr %12, align 8, !tbaa !11
  store ptr %5, ptr %13, align 8, !tbaa !11
  store i32 %6, ptr %14, align 4, !tbaa !9
  call void @llvm.lifetime.start.p0(i64 4, ptr %15) #8
  store i32 0, ptr %15, align 4, !tbaa !9
  br label %16

16:                                               ; preds = %125, %7
  %17 = load i32, ptr %15, align 4, !tbaa !9
  %18 = load i32, ptr %14, align 4, !tbaa !9
  %19 = icmp slt i32 %17, %18
  br i1 %19, label %20, label %128

20:                                               ; preds = %16
  %21 = load ptr, ptr %11, align 8, !tbaa !11
  %22 = load i32, ptr %15, align 4, !tbaa !9
  %23 = sext i32 %22 to i64
  %24 = getelementptr inbounds i16, ptr %21, i64 %23
  %25 = load i16, ptr %24, align 2, !tbaa !49
  %26 = sext i16 %25 to i32
  %27 = load ptr, ptr %13, align 8, !tbaa !11
  %28 = load i32, ptr %15, align 4, !tbaa !9
  %29 = sext i32 %28 to i64
  %30 = getelementptr inbounds i16, ptr %27, i64 %29
  %31 = load i16, ptr %30, align 2, !tbaa !49
  %32 = sext i16 %31 to i32
  %33 = add nsw i32 %26, %32
  %34 = mul nsw i32 3, %33
  %35 = add nsw i32 %34, 4
  %36 = ashr i32 %35, 3
  %37 = load ptr, ptr %12, align 8, !tbaa !11
  %38 = load i32, ptr %15, align 4, !tbaa !9
  %39 = sext i32 %38 to i64
  %40 = getelementptr inbounds i16, ptr %37, i64 %39
  %41 = load i16, ptr %40, align 2, !tbaa !49
  %42 = sext i16 %41 to i32
  %43 = sub nsw i32 %42, %36
  %44 = trunc i32 %43 to i16
  store i16 %44, ptr %40, align 2, !tbaa !49
  %45 = load ptr, ptr %10, align 8, !tbaa !11
  %46 = load i32, ptr %15, align 4, !tbaa !9
  %47 = sext i32 %46 to i64
  %48 = getelementptr inbounds i16, ptr %45, i64 %47
  %49 = load i16, ptr %48, align 2, !tbaa !49
  %50 = sext i16 %49 to i32
  %51 = load ptr, ptr %12, align 8, !tbaa !11
  %52 = load i32, ptr %15, align 4, !tbaa !9
  %53 = sext i32 %52 to i64
  %54 = getelementptr inbounds i16, ptr %51, i64 %53
  %55 = load i16, ptr %54, align 2, !tbaa !49
  %56 = sext i16 %55 to i32
  %57 = add nsw i32 %50, %56
  %58 = mul nsw i32 1, %57
  %59 = add nsw i32 %58, 0
  %60 = ashr i32 %59, 0
  %61 = load ptr, ptr %11, align 8, !tbaa !11
  %62 = load i32, ptr %15, align 4, !tbaa !9
  %63 = sext i32 %62 to i64
  %64 = getelementptr inbounds i16, ptr %61, i64 %63
  %65 = load i16, ptr %64, align 2, !tbaa !49
  %66 = sext i16 %65 to i32
  %67 = sub nsw i32 %66, %60
  %68 = trunc i32 %67 to i16
  store i16 %68, ptr %64, align 2, !tbaa !49
  %69 = load ptr, ptr %9, align 8, !tbaa !11
  %70 = load i32, ptr %15, align 4, !tbaa !9
  %71 = sext i32 %70 to i64
  %72 = getelementptr inbounds i16, ptr %69, i64 %71
  %73 = load i16, ptr %72, align 2, !tbaa !49
  %74 = sext i16 %73 to i32
  %75 = load ptr, ptr %11, align 8, !tbaa !11
  %76 = load i32, ptr %15, align 4, !tbaa !9
  %77 = sext i32 %76 to i64
  %78 = getelementptr inbounds i16, ptr %75, i64 %77
  %79 = load i16, ptr %78, align 2, !tbaa !49
  %80 = sext i16 %79 to i32
  %81 = add nsw i32 %74, %80
  %82 = mul nsw i32 1, %81
  %83 = load ptr, ptr %10, align 8, !tbaa !11
  %84 = load i32, ptr %15, align 4, !tbaa !9
  %85 = sext i32 %84 to i64
  %86 = getelementptr inbounds i16, ptr %83, i64 %85
  %87 = load i16, ptr %86, align 2, !tbaa !49
  %88 = sext i16 %87 to i32
  %89 = mul nsw i32 4, %88
  %90 = add nsw i32 %82, %89
  %91 = add nsw i32 %90, 8
  %92 = ashr i32 %91, 4
  %93 = load ptr, ptr %10, align 8, !tbaa !11
  %94 = load i32, ptr %15, align 4, !tbaa !9
  %95 = sext i32 %94 to i64
  %96 = getelementptr inbounds i16, ptr %93, i64 %95
  %97 = load i16, ptr %96, align 2, !tbaa !49
  %98 = sext i16 %97 to i32
  %99 = add nsw i32 %98, %92
  %100 = trunc i32 %99 to i16
  store i16 %100, ptr %96, align 2, !tbaa !49
  %101 = load ptr, ptr %8, align 8, !tbaa !11
  %102 = load i32, ptr %15, align 4, !tbaa !9
  %103 = sext i32 %102 to i64
  %104 = getelementptr inbounds i16, ptr %101, i64 %103
  %105 = load i16, ptr %104, align 2, !tbaa !49
  %106 = sext i16 %105 to i32
  %107 = load ptr, ptr %10, align 8, !tbaa !11
  %108 = load i32, ptr %15, align 4, !tbaa !9
  %109 = sext i32 %108 to i64
  %110 = getelementptr inbounds i16, ptr %107, i64 %109
  %111 = load i16, ptr %110, align 2, !tbaa !49
  %112 = sext i16 %111 to i32
  %113 = add nsw i32 %106, %112
  %114 = mul nsw i32 3, %113
  %115 = add nsw i32 %114, 0
  %116 = ashr i32 %115, 1
  %117 = load ptr, ptr %9, align 8, !tbaa !11
  %118 = load i32, ptr %15, align 4, !tbaa !9
  %119 = sext i32 %118 to i64
  %120 = getelementptr inbounds i16, ptr %117, i64 %119
  %121 = load i16, ptr %120, align 2, !tbaa !49
  %122 = sext i16 %121 to i32
  %123 = add nsw i32 %122, %116
  %124 = trunc i32 %123 to i16
  store i16 %124, ptr %120, align 2, !tbaa !49
  br label %125

125:                                              ; preds = %20
  %126 = load i32, ptr %15, align 4, !tbaa !9
  %127 = add nsw i32 %126, 1
  store i32 %127, ptr %15, align 4, !tbaa !9
  br label %16, !llvm.loop !73

128:                                              ; preds = %16
  call void @llvm.lifetime.end.p0(i64 4, ptr %15) #8
  ret void
}