; Function Attrs: nofree norecurse nosync nounwind memory(argmem: readwrite) uwtable
define internal void @snow_vertical_compose97i(ptr noundef readonly captures(none) %0, ptr noundef captures(none) %1, ptr noundef captures(none) %2, ptr noundef captures(none) %3, ptr noundef captures(none) %4, ptr noundef readonly captures(none) %5, i32 noundef %6) #10 {
  %8 = icmp sgt i32 %6, 0
  br i1 %8, label %.lr.ph.preheader, label %._crit_edge

.lr.ph.preheader:                                 ; preds = %7
  %wide.trip.count = zext nneg i32 %6 to i64
  br label %.lr.ph

.lr.ph:                                           ; preds = %.lr.ph.preheader, %.lr.ph
  %indvars.iv = phi i64 [ 0, %.lr.ph.preheader ], [ %indvars.iv.next, %.lr.ph ]
  %9 = getelementptr inbounds nuw i16, ptr %3, i64 %indvars.iv
  %10 = load i16, ptr %9, align 2, !tbaa !48
  %11 = sext i16 %10 to i32
  %12 = getelementptr inbounds nuw i16, ptr %5, i64 %indvars.iv
  %13 = load i16, ptr %12, align 2, !tbaa !48
  %14 = sext i16 %13 to i32
  %15 = add nsw i32 %14, %11
  %16 = mul nsw i32 %15, 3
  %17 = add nsw i32 %16, 4
  %18 = lshr i32 %17, 3
  %19 = getelementptr inbounds nuw i16, ptr %4, i64 %indvars.iv
  %20 = load i16, ptr %19, align 2, !tbaa !48
  %21 = trunc i32 %18 to i16
  %22 = sub i16 %20, %21
  store i16 %22, ptr %19, align 2, !tbaa !48
  %23 = getelementptr inbounds nuw i16, ptr %2, i64 %indvars.iv
  %24 = load i16, ptr %23, align 2, !tbaa !48
  %25 = load i16, ptr %9, align 2, !tbaa !48
  %26 = add i16 %24, %22
  %27 = sub i16 %25, %26
  store i16 %27, ptr %9, align 2, !tbaa !48
  %28 = getelementptr inbounds nuw i16, ptr %1, i64 %indvars.iv
  %29 = load i16, ptr %28, align 2, !tbaa !48
  %30 = sext i16 %29 to i32
  %31 = sext i16 %27 to i32
  %32 = load i16, ptr %23, align 2, !tbaa !48
  %33 = sext i16 %32 to i32
  %34 = shl nsw i32 %33, 2
  %35 = add nsw i32 %30, 8
  %36 = add nsw i32 %35, %31
  %37 = add nsw i32 %36, %34
  %38 = lshr i32 %37, 4
  %39 = trunc i32 %38 to i16
  %40 = add i16 %32, %39
  store i16 %40, ptr %23, align 2, !tbaa !48
  %41 = getelementptr inbounds nuw i16, ptr %0, i64 %indvars.iv
  %42 = load i16, ptr %41, align 2, !tbaa !48
  %43 = sext i16 %42 to i32
  %44 = sext i16 %40 to i32
  %45 = add nsw i32 %44, %43
  %46 = lshr i32 %45, 1
  %47 = add i32 %46, %45
  %48 = load i16, ptr %28, align 2, !tbaa !48
  %49 = trunc i32 %47 to i16
  %50 = add i16 %48, %49
  store i16 %50, ptr %28, align 2, !tbaa !48
  %indvars.iv.next = add nuw nsw i64 %indvars.iv, 1
  %exitcond.not = icmp eq i64 %indvars.iv.next, %wide.trip.count
  br i1 %exitcond.not, label %._crit_edge, label %.lr.ph, !llvm.loop !76

._crit_edge:                                      ; preds = %.lr.ph, %7
  ret void
}